target datalayout = "e-m:e-p270:32:32-p271:32:32-p272:64:64-i64:64-i128:128-f80:128-n8:16:32:64-S128"
target triple = "x86_64-pc-linux-gnu"

@.str.295 = private unnamed_addr constant [59 x i8] c"session key to client-to-server sealing key magic constant\00", align 1
@.str.296 = private unnamed_addr constant [59 x i8] c"session key to server-to-client sealing key magic constant\00", align 1

; Function Attrs: alwaysinline nounwind
define internal ptr @memcpy.inline(ptr noalias %0, ptr noalias %1, i64 %2) #3 {
  %4 = alloca ptr, align 8
  %5 = alloca ptr, align 8
  %6 = alloca i64, align 8
  store ptr %0, ptr %4, align 8
  store ptr %1, ptr %5, align 8
  store i64 %2, ptr %6, align 8
  %7 = load ptr, ptr %4, align 8
  %8 = load ptr, ptr %5, align 8
  %9 = load i64, ptr %6, align 8
  %10 = load ptr, ptr %4, align 8
  %11 = call i64 @llvm.objectsize.i64.p0(ptr %10, i1 false, i1 true, i1 true)
  %12 = call ptr @__memcpy_chk(ptr noundef %7, ptr noundef %8, i64 noundef %9, i64 noundef %11) #17
  ret ptr %12
}

; Function Attrs: alwaysinline nounwind
define internal ptr @memset.inline(ptr %0, i32 %1, i64 %2) #3 {
  %4 = alloca ptr, align 8
  %5 = alloca i32, align 4
  %6 = alloca i64, align 8
  store ptr %0, ptr %4, align 8
  store i32 %1, ptr %5, align 4
  store i64 %2, ptr %6, align 8
  %7 = load ptr, ptr %4, align 8
  %8 = load i32, ptr %5, align 4
  %9 = load i64, ptr %6, align 8
  %10 = load ptr, ptr %4, align 8
  %11 = call i64 @llvm.objectsize.i64.p0(ptr %10, i1 false, i1 true, i1 true)
  %12 = call ptr @__memset_chk(ptr noundef %7, i32 noundef %8, i64 noundef %9, i64 noundef %11) #17
  ret ptr %12
}

; Function Attrs: null_pointer_is_valid sspstrong uwtable
define internal void @get_sealing_rc4key(ptr noundef %0, i32 noundef %1, ptr noundef %2, ptr noundef %3, ptr noundef %4) #0 {
  %6 = alloca ptr, align 8
  %7 = alloca i32, align 4
  %8 = alloca ptr, align 8
  %9 = alloca ptr, align 8
  %10 = alloca ptr, align 8
  %11 = alloca ptr, align 8
  %12 = alloca i32, align 4
  store ptr %0, ptr %6, align 8
  store i32 %1, ptr %7, align 4
  store ptr %2, ptr %8, align 8
  store ptr %3, ptr %9, align 8
  store ptr %4, ptr %10, align 8
  call void @llvm.lifetime.start.p0(i64 8, ptr %11) #17
  %13 = load ptr, ptr %9, align 8
  %14 = call ptr @memset.inline(ptr noundef %13, i32 noundef 0, i64 noundef 16) #17
  %15 = load ptr, ptr %10, align 8
  %16 = call ptr @memset.inline(ptr noundef %15, i32 noundef 0, i64 noundef 16) #17
  %17 = load ptr, ptr %9, align 8
  %18 = load ptr, ptr %6, align 8
  %19 = call ptr @memcpy.inline(ptr noundef %17, ptr noundef %18, i64 noundef 16) #17
  %20 = load i32, ptr %7, align 4
  %21 = and i32 %20, 524288
  %22 = icmp ne i32 %21, 0
  br i1 %22, label %23, label %74

23:                                               ; preds = %5
  %24 = load i32, ptr %7, align 4
  %25 = and i32 %24, 536870912
  %26 = icmp ne i32 %25, 0
  br i1 %26, label %27, label %29

27:                                               ; preds = %23
  %28 = load ptr, ptr %8, align 8
  store i32 16, ptr %28, align 4
  br label %44

29:                                               ; preds = %23
  %30 = load i32, ptr %7, align 4
  %31 = and i32 %30, -2147483648
  %32 = icmp ne i32 %31, 0
  br i1 %32, label %33, label %38

33:                                               ; preds = %29
  %34 = load ptr, ptr %9, align 8
  %35 = getelementptr i8, ptr %34, i64 7
  %36 = call ptr @memset.inline(ptr noundef %35, i32 noundef 0, i64 noundef 9) #17
  %37 = load ptr, ptr %8, align 8
  store i32 7, ptr %37, align 4
  br label %43

38:                                               ; preds = %29
  %39 = load ptr, ptr %9, align 8
  %40 = getelementptr i8, ptr %39, i64 5
  %41 = call ptr @memset.inline(ptr noundef %40, i32 noundef 0, i64 noundef 11) #17
  %42 = load ptr, ptr %8, align 8
  store i32 5, ptr %42, align 4
  br label %43

43:                                               ; preds = %38, %33
  br label %44

44:                                               ; preds = %43, %27
  %45 = load ptr, ptr %10, align 8
  %46 = load ptr, ptr %9, align 8
  %47 = call ptr @memcpy.inline(ptr noundef %45, ptr noundef %46, i64 noundef 16) #17
  %48 = call i32 @gcry_md_open(ptr noundef %11, i32 noundef 1, i32 noundef 0)
  %49 = icmp ne i32 %48, 0
  br i1 %49, label %50, label %51

50:                                               ; preds = %44
  store i32 1, ptr %12, align 4
  br label %108

51:                                               ; preds = %44
  %52 = load ptr, ptr %11, align 8
  %53 = load ptr, ptr %9, align 8
  %54 = load ptr, ptr %8, align 8
  %55 = load i32, ptr %54, align 4
  %56 = sext i32 %55 to i64
  call void @gcry_md_write(ptr noundef %52, ptr noundef %53, i64 noundef %56)
  %57 = load ptr, ptr %11, align 8
  call void @gcry_md_write(ptr noundef %57, ptr noundef @.str.295, i64 noundef 59)
  %58 = load ptr, ptr %9, align 8
  %59 = load ptr, ptr %11, align 8
  %60 = call ptr @gcry_md_read(ptr noundef %59, i32 noundef 0)
  %61 = call ptr @memcpy.inline(ptr noundef %58, ptr noundef %60, i64 noundef 16) #17
  %62 = load ptr, ptr %11, align 8
  call void @gcry_md_reset(ptr noundef %62)
  %63 = load ptr, ptr %11, align 8
  %64 = load ptr, ptr %10, align 8
  %65 = load ptr, ptr %8, align 8
  %66 = load i32, ptr %65, align 4
  %67 = sext i32 %66 to i64
  call void @gcry_md_write(ptr noundef %63, ptr noundef %64, i64 noundef %67)
  %68 = load ptr, ptr %11, align 8
  call void @gcry_md_write(ptr noundef %68, ptr noundef @.str.296, i64 noundef 59)
  %69 = load ptr, ptr %10, align 8
  %70 = load ptr, ptr %11, align 8
  %71 = call ptr @gcry_md_read(ptr noundef %70, i32 noundef 0)
  %72 = call ptr @memcpy.inline(ptr noundef %69, ptr noundef %71, i64 noundef 16) #17
  %73 = load ptr, ptr %11, align 8
  call void @gcry_md_close(ptr noundef %73)
  br label %107

74:                                               ; preds = %5
  %75 = load i32, ptr %7, align 4
  %76 = and i32 %75, 536870912
  %77 = icmp ne i32 %76, 0
  br i1 %77, label %78, label %80

78:                                               ; preds = %74
  %79 = load ptr, ptr %8, align 8
  store i32 16, ptr %79, align 4
  br label %100

80:                                               ; preds = %74
  %81 = load ptr, ptr %8, align 8
  store i32 8, ptr %81, align 4
  %82 = load i32, ptr %7, align 4
  %83 = and i32 %82, -2147483648
  %84 = icmp ne i32 %83, 0
  br i1 %84, label %85, label %89

85:                                               ; preds = %80
  %86 = load ptr, ptr %9, align 8
  %87 = getelementptr i8, ptr %86, i64 7
  %88 = call ptr @memset.inline(ptr noundef %87, i32 noundef 0, i64 noundef 9) #17
  br label %99

89:                                               ; preds = %80
  %90 = load ptr, ptr %9, align 8
  %91 = getelementptr i8, ptr %90, i64 5
  %92 = call ptr @memset.inline(ptr noundef %91, i32 noundef 0, i64 noundef 11) #17
  %93 = load ptr, ptr %9, align 8
  %94 = getelementptr i8, ptr %93, i64 5
  store i8 -27, ptr %94, align 1
  %95 = load ptr, ptr %9, align 8
  %96 = getelementptr i8, ptr %95, i64 6
  store i8 56, ptr %96, align 1
  %97 = load ptr, ptr %9, align 8
  %98 = getelementptr i8, ptr %97, i64 7
  store i8 -80, ptr %98, align 1
  br label %99

99:                                               ; preds = %89, %85
  br label %100

100:                                              ; preds = %99, %78
  %101 = load ptr, ptr %10, align 8
  %102 = load ptr, ptr %9, align 8
  %103 = load ptr, ptr %8, align 8
  %104 = load i32, ptr %103, align 4
  %105 = sext i32 %104 to i64
  %106 = call ptr @memcpy.inline(ptr noundef %101, ptr noundef %102, i64 noundef %105) #17
  br label %107

107:                                              ; preds = %100, %51
  store i32 0, ptr %12, align 4
  br label %108

108:                                              ; preds = %107, %50
  call void @llvm.lifetime.end.p0(i64 8, ptr %11) #17
  %109 = load i32, ptr %12, align 4
  switch i32 %109, label %111 [
    i32 0, label %110
    i32 1, label %110
  ]

110:                                              ; preds = %108, %108
  ret void

111:                                              ; preds = %108
  unreachable
}