; Function Attrs: null_pointer_is_valid sspstrong uwtable
define internal fastcc void @get_sealing_rc4key(ptr noundef readonly captures(none) %0, i32 noundef %1, ptr noundef captures(none) initializes((0, 4)) %2, ptr noundef %3, ptr noundef %4) unnamed_addr #0 {
  %6 = alloca ptr, align 8
  call void @llvm.lifetime.start.p0(i64 8, ptr nonnull %6) #17
  tail call void @llvm.memset.p0.i64(ptr noundef align 1 dereferenceable(16) %3, i8 noundef 0, i64 noundef 16, i1 noundef false) #17
  tail call void @llvm.memset.p0.i64(ptr noundef align 1 dereferenceable(16) %4, i8 noundef 0, i64 noundef 16, i1 noundef false) #17
  tail call void @llvm.memcpy.p0.p0.i64(ptr noundef align 1 dereferenceable(16) %3, ptr noundef align 1 dereferenceable(16) %0, i64 noundef 16, i1 noundef false) #17
  %7 = and i32 %1, 524288
  %.not = icmp eq i32 %7, 0
  %8 = and i32 %1, 536870912
  %.not31 = icmp eq i32 %8, 0
  br i1 %.not, label %28, label %9

9:                                                ; preds = %5
  br i1 %.not31, label %.sink.split, label %11

.sink.split:                                      ; preds = %9
  %.not34 = icmp sgt i32 %1, -1
  %. = select i1 %.not34, i64 5, i64 7
  %.41 = select i1 %.not34, i64 11, i64 9
  %.42 = select i1 %.not34, i32 5, i32 7
  %10 = getelementptr i8, ptr %3, i64 %.
  tail call void @llvm.memset.p0.i64(ptr noundef align 1 dereferenceable(9) %10, i8 noundef 0, i64 noundef %.41, i1 noundef false) #17
  br label %11

11:                                               ; preds = %.sink.split, %9
  %.sink = phi i32 [ 16, %9 ], [ %.42, %.sink.split ]
  store i32 %.sink, ptr %2, align 4
  tail call void @llvm.memcpy.p0.p0.i64(ptr noundef align 1 dereferenceable(16) %4, ptr noundef align 1 dereferenceable(16) %3, i64 noundef 16, i1 noundef false) #17
  %12 = call i32 @gcry_md_open(ptr noundef nonnull %6, i32 noundef 1, i32 noundef 0)
  %.not35 = icmp eq i32 %12, 0
  br i1 %.not35, label %13, label %40

13:                                               ; preds = %11
  %14 = load ptr, ptr %6, align 8
  %15 = load i32, ptr %2, align 4
  %16 = sext i32 %15 to i64
  call void @gcry_md_write(ptr noundef %14, ptr noundef %3, i64 noundef %16)
  %17 = load ptr, ptr %6, align 8
  call void @gcry_md_write(ptr noundef %17, ptr noundef nonnull @.str.295, i64 noundef 59)
  %18 = load ptr, ptr %6, align 8
  %19 = call ptr @gcry_md_read(ptr noundef %18, i32 noundef 0)
  call void @llvm.memcpy.p0.p0.i64(ptr noundef align 1 dereferenceable(16) %3, ptr noundef align 1 dereferenceable(16) %19, i64 noundef 16, i1 noundef false) #17
  %20 = load ptr, ptr %6, align 8
  call void @gcry_md_reset(ptr noundef %20)
  %21 = load ptr, ptr %6, align 8
  %22 = load i32, ptr %2, align 4
  %23 = sext i32 %22 to i64
  call void @gcry_md_write(ptr noundef %21, ptr noundef %4, i64 noundef %23)
  %24 = load ptr, ptr %6, align 8
  call void @gcry_md_write(ptr noundef %24, ptr noundef nonnull @.str.296, i64 noundef 59)
  %25 = load ptr, ptr %6, align 8
  %26 = call ptr @gcry_md_read(ptr noundef %25, i32 noundef 0)
  call void @llvm.memcpy.p0.p0.i64(ptr noundef align 1 dereferenceable(16) %4, ptr noundef align 1 dereferenceable(16) %26, i64 noundef 16, i1 noundef false) #17
  %27 = load ptr, ptr %6, align 8
  call void @gcry_md_close(ptr noundef %27)
  br label %40

28:                                               ; preds = %5
  br i1 %.not31, label %30, label %29

29:                                               ; preds = %28
  store i32 16, ptr %2, align 4
  br label %37

30:                                               ; preds = %28
  store i32 8, ptr %2, align 4
  %.not32 = icmp sgt i32 %1, -1
  br i1 %.not32, label %33, label %31

31:                                               ; preds = %30
  %32 = getelementptr i8, ptr %3, i64 7
  tail call void @llvm.memset.p0.i64(ptr noundef align 1 dereferenceable(9) %32, i8 noundef 0, i64 noundef 9, i1 noundef false) #17
  br label %37

33:                                               ; preds = %30
  %34 = getelementptr i8, ptr %3, i64 5
  tail call void @llvm.memset.p0.i64(ptr noundef align 1 dereferenceable(11) %34, i8 noundef 0, i64 noundef 11, i1 noundef false) #17
  store i8 -27, ptr %34, align 1
  %35 = getelementptr i8, ptr %3, i64 6
  store i8 56, ptr %35, align 1
  %36 = getelementptr i8, ptr %3, i64 7
  store i8 -80, ptr %36, align 1
  br label %37

37:                                               ; preds = %31, %33, %29
  %38 = load i32, ptr %2, align 4
  %39 = sext i32 %38 to i64
  tail call void @llvm.memcpy.p0.p0.i64(ptr noundef align 1 %4, ptr noundef align 1 %3, i64 noundef range(i64 -2147483648, 2147483648) %39, i1 noundef false) #17
  br label %40

40:                                               ; preds = %13, %37, %11
  call void @llvm.lifetime.end.p0(i64 8, ptr nonnull %6) #17
  ret void
}